target datalayout = "e-m:e-p270:32:32-p271:32:32-p272:64:64-i64:64-i128:128-f80:128-n8:16:32:64-S128"
target triple = "x86_64-unknown-linux-gnu"

%struct.btBoxBoxDetector = type { %struct.btDiscreteCollisionDetectorInterface, ptr, ptr }
%struct.btDiscreteCollisionDetectorInterface = type { ptr }

; Function Attrs: mustprogress nounwind uwtable
define linkonce_odr dso_local void @_ZN36btDiscreteCollisionDetectorInterfaceC2Ev(ptr noundef nonnull align 8 dereferenceable(8) %this) unnamed_addr #1 comdat align 2 {
entry:
  %this.addr = alloca ptr, align 8
  store ptr %this, ptr %this.addr, align 8
  %this1 = load ptr, ptr %this.addr, align 8
  store ptr getelementptr inbounds ({ [5 x ptr] }, ptr @_ZTV36btDiscreteCollisionDetectorInterface, i32 0, i32 0, i32 2), ptr %this1, align 8
  ret void
}

; Function Attrs: mustprogress nounwind uwtable
define dso_local void @_ZN16btBoxBoxDetectorC2EPK10btBoxShapeS2_(ptr noundef nonnull align 8 dereferenceable(24) %this, ptr noundef %box1, ptr noundef %box2) unnamed_addr #1 align 2 {
entry:
  %this.addr = alloca ptr, align 8
  %box1.addr = alloca ptr, align 8
  %box2.addr = alloca ptr, align 8
  store ptr %this, ptr %this.addr, align 8
  store ptr %box1, ptr %box1.addr, align 8
  store ptr %box2, ptr %box2.addr, align 8
  %this1 = load ptr, ptr %this.addr, align 8
  call void @_ZN36btDiscreteCollisionDetectorInterfaceC2Ev(ptr noundef nonnull align 8 dereferenceable(8) %this1) #9
  store ptr getelementptr inbounds ({ [5 x ptr] }, ptr @_ZTV16btBoxBoxDetector, i32 0, i32 0, i32 2), ptr %this1, align 8
  %m_box1 = getelementptr inbounds %struct.btBoxBoxDetector, ptr %this1, i32 0, i32 1
  %0 = load ptr, ptr %box1.addr, align 8
  store ptr %0, ptr %m_box1, align 8
  %m_box2 = getelementptr inbounds %struct.btBoxBoxDetector, ptr %this1, i32 0, i32 2
  %1 = load ptr, ptr %box2.addr, align 8
  store ptr %1, ptr %m_box2, align 8
  ret void
}